target datalayout = "e-m:e-p270:32:32-p271:32:32-p272:64:64-i64:64-i128:128-f80:128-n8:16:32:64-S128"
target triple = "x86_64-pc-linux-gnu"

%struct.DR_sqlfunction = type { %struct._DestReceiver, ptr, ptr, ptr }
%struct._DestReceiver = type { ptr, ptr, ptr, ptr, i32 }

; Function Attrs: nounwind uwtable
define dso_local ptr @CreateSQLFunctionDestReceiver() #0 {
  %1 = alloca ptr, align 8
  call void @llvm.lifetime.start.p0(i64 8, ptr %1) #8
  %2 = call ptr @palloc0(i64 noundef 64)
  store ptr %2, ptr %1, align 8
  %3 = load ptr, ptr %1, align 8
  %4 = getelementptr inbounds nuw %struct.DR_sqlfunction, ptr %3, i32 0, i32 0
  %5 = getelementptr inbounds nuw %struct._DestReceiver, ptr %4, i32 0, i32 0
  store ptr @sqlfunction_receive, ptr %5, align 8
  %6 = load ptr, ptr %1, align 8
  %7 = getelementptr inbounds nuw %struct.DR_sqlfunction, ptr %6, i32 0, i32 0
  %8 = getelementptr inbounds nuw %struct._DestReceiver, ptr %7, i32 0, i32 1
  store ptr @sqlfunction_startup, ptr %8, align 8
  %9 = load ptr, ptr %1, align 8
  %10 = getelementptr inbounds nuw %struct.DR_sqlfunction, ptr %9, i32 0, i32 0
  %11 = getelementptr inbounds nuw %struct._DestReceiver, ptr %10, i32 0, i32 2
  store ptr @sqlfunction_shutdown, ptr %11, align 8
  %12 = load ptr, ptr %1, align 8
  %13 = getelementptr inbounds nuw %struct.DR_sqlfunction, ptr %12, i32 0, i32 0
  %14 = getelementptr inbounds nuw %struct._DestReceiver, ptr %13, i32 0, i32 3
  store ptr @sqlfunction_destroy, ptr %14, align 8
  %15 = load ptr, ptr %1, align 8
  %16 = getelementptr inbounds nuw %struct.DR_sqlfunction, ptr %15, i32 0, i32 0
  %17 = getelementptr inbounds nuw %struct._DestReceiver, ptr %16, i32 0, i32 4
  store i32 9, ptr %17, align 8
  %18 = load ptr, ptr %1, align 8
  call void @llvm.lifetime.end.p0(i64 8, ptr %1) #8
  ret ptr %18
}