; Function Attrs: nounwind uwtable
define dso_local noundef ptr @CreateSQLFunctionDestReceiver() local_unnamed_addr #0 {
  %1 = tail call ptr @palloc0(i64 noundef 64) #11
  store ptr @sqlfunction_receive, ptr %1, align 8
  %2 = getelementptr inbounds nuw i8, ptr %1, i64 8
  store ptr @sqlfunction_startup, ptr %2, align 8
  %3 = getelementptr inbounds nuw i8, ptr %1, i64 16
  store ptr @sqlfunction_shutdown, ptr %3, align 8
  %4 = getelementptr inbounds nuw i8, ptr %1, i64 24
  store ptr @sqlfunction_destroy, ptr %4, align 8
  %5 = getelementptr inbounds nuw i8, ptr %1, i64 32
  store i32 9, ptr %5, align 8
  ret ptr %1
}